target datalayout = "e-m:e-p270:32:32-p271:32:32-p272:64:64-i64:64-i128:128-f80:128-n8:16:32:64-S128"
target triple = "x86_64-pc-linux-gnu"

%struct.H5G_t = type { ptr, %struct.H5O_loc_t, %struct.H5G_name_t }
%struct.H5O_loc_t = type { ptr, i64, i8 }
%struct.H5G_name_t = type { ptr, ptr, i32 }

@.str = private unnamed_addr constant [101 x i8] c"generated/home/dtcxzyw/WorkSpace/Projects/compilers/llvm-opt-benchmark/bench/hdf5/hdf5/src/H5Gtest.c\00", align 1
@H5E_ARGS_g = external global i64, align 8
@H5E_BADTYPE_g = external global i64, align 8
@.str.1 = private unnamed_addr constant [12 x i8] c"not a group\00", align 1
@H5E_SYM_g = external global i64, align 8
@H5E_CANTSET_g = external global i64, align 8
@.str.2 = private unnamed_addr constant [22 x i8] c"can't set API context\00", align 1
@H5E_CANTINIT_g = external global i64, align 8
@.str.3 = private unnamed_addr constant [29 x i8] c"unable to read object header\00", align 1
@H5E_BADVALUE_g = external global i64, align 8
@.str.4 = private unnamed_addr constant [42 x i8] c"both symbol table and link messages found\00", align 1
@H5E_CANTRESET_g = external global i64, align 8
@.str.10 = private unnamed_addr constant [24 x i8] c"can't reset API context\00", align 1
@__func__.H5G__has_stab_test = private unnamed_addr constant [19 x i8] c"H5G__has_stab_test\00", align 1

; Function Attrs: nounwind uwtable
define i32 @H5G__has_stab_test(i64 noundef %0) #0 {
  %2 = alloca i64, align 8
  %3 = alloca ptr, align 8
  %4 = alloca i32, align 4
  %5 = alloca i8, align 1
  %6 = alloca i32, align 4
  %7 = alloca i8, align 1
  store i64 %0, ptr %2, align 8
  store ptr null, ptr %3, align 8
  store i32 0, ptr %4, align 4
  store i8 0, ptr %5, align 1
  store i32 1, ptr %6, align 4
  store i8 0, ptr %7, align 1
  %8 = load i64, ptr %2, align 8
  %9 = call ptr @H5VL_object_verify(i64 noundef %8, i32 noundef 2)
  store ptr %9, ptr %3, align 8
  %10 = icmp eq ptr null, %9
  br i1 %10, label %11, label %26

11:                                               ; preds = %1
  br label %12

12:                                               ; preds = %11
  br label %13

13:                                               ; preds = %12
  br label %14

14:                                               ; preds = %13
  %15 = load i64, ptr @H5E_ARGS_g, align 8
  %16 = load i64, ptr @H5E_BADTYPE_g, align 8
  %17 = call i32 (ptr, ptr, i32, i64, i64, ptr, ...) @H5E_printf_stack(ptr noundef @.str, ptr noundef @__func__.H5G__has_stab_test, i32 noundef 281, i64 noundef %15, i64 noundef %16, ptr noundef @.str.1)
  br label %18

18:                                               ; preds = %14
  store i8 1, ptr %7, align 1
  %19 = load i8, ptr %7, align 1
  %20 = trunc i8 %19 to i1
  %21 = zext i1 %20 to i8
  store i8 %21, ptr %7, align 1
  br label %22

22:                                               ; preds = %18
  br label %23

23:                                               ; preds = %22
  store i32 -1, ptr %6, align 4
  br label %109

24:                                               ; No predecessors!
  br label %25

25:                                               ; preds = %24
  br label %26

26:                                               ; preds = %25, %1
  %27 = call i32 @H5CX_push()
  %28 = icmp slt i32 %27, 0
  br i1 %28, label %29, label %44

29:                                               ; preds = %26
  br label %30

30:                                               ; preds = %29
  br label %31

31:                                               ; preds = %30
  br label %32

32:                                               ; preds = %31
  %33 = load i64, ptr @H5E_SYM_g, align 8
  %34 = load i64, ptr @H5E_CANTSET_g, align 8
  %35 = call i32 (ptr, ptr, i32, i64, i64, ptr, ...) @H5E_printf_stack(ptr noundef @.str, ptr noundef @__func__.H5G__has_stab_test, i32 noundef 285, i64 noundef %33, i64 noundef %34, ptr noundef @.str.2)
  br label %36

36:                                               ; preds = %32
  store i8 1, ptr %7, align 1
  %37 = load i8, ptr %7, align 1
  %38 = trunc i8 %37 to i1
  %39 = zext i1 %38 to i8
  store i8 %39, ptr %7, align 1
  br label %40

40:                                               ; preds = %36
  br label %41

41:                                               ; preds = %40
  store i32 -1, ptr %6, align 4
  br label %109

42:                                               ; No predecessors!
  br label %43

43:                                               ; preds = %42
  br label %44

44:                                               ; preds = %43, %26
  store i8 1, ptr %5, align 1
  %45 = load ptr, ptr %3, align 8
  %46 = getelementptr inbounds %struct.H5G_t, ptr %45, i32 0, i32 1
  %47 = call i32 @H5O_msg_exists(ptr noundef %46, i32 noundef 17)
  store i32 %47, ptr %4, align 4
  %48 = icmp slt i32 %47, 0
  br i1 %48, label %49, label %64

49:                                               ; preds = %44
  br label %50

50:                                               ; preds = %49
  br label %51

51:                                               ; preds = %50
  br label %52

52:                                               ; preds = %51
  %53 = load i64, ptr @H5E_SYM_g, align 8
  %54 = load i64, ptr @H5E_CANTINIT_g, align 8
  %55 = call i32 (ptr, ptr, i32, i64, i64, ptr, ...) @H5E_printf_stack(ptr noundef @.str, ptr noundef @__func__.H5G__has_stab_test, i32 noundef 290, i64 noundef %53, i64 noundef %54, ptr noundef @.str.3)
  br label %56

56:                                               ; preds = %52
  store i8 1, ptr %7, align 1
  %57 = load i8, ptr %7, align 1
  %58 = trunc i8 %57 to i1
  %59 = zext i1 %58 to i8
  store i8 %59, ptr %7, align 1
  br label %60

60:                                               ; preds = %56
  br label %61

61:                                               ; preds = %60
  store i32 -1, ptr %6, align 4
  br label %109

62:                                               ; No predecessors!
  br label %63

63:                                               ; preds = %62
  br label %64

64:                                               ; preds = %63, %44
  %65 = load i32, ptr %4, align 4
  %66 = icmp eq i32 %65, 0
  br i1 %66, label %67, label %70

67:                                               ; preds = %64
  br label %68

68:                                               ; preds = %67
  store i32 0, ptr %6, align 4
  br label %109

69:                                               ; No predecessors!
  br label %70

70:                                               ; preds = %69, %64
  %71 = load ptr, ptr %3, align 8
  %72 = getelementptr inbounds %struct.H5G_t, ptr %71, i32 0, i32 1
  %73 = call i32 @H5O_msg_exists(ptr noundef %72, i32 noundef 6)
  store i32 %73, ptr %4, align 4
  %74 = icmp slt i32 %73, 0
  br i1 %74, label %75, label %90

75:                                               ; preds = %70
  br label %76

76:                                               ; preds = %75
  br label %77

77:                                               ; preds = %76
  br label %78

78:                                               ; preds = %77
  %79 = load i64, ptr @H5E_SYM_g, align 8
  %80 = load i64, ptr @H5E_CANTINIT_g, align 8
  %81 = call i32 (ptr, ptr, i32, i64, i64, ptr, ...) @H5E_printf_stack(ptr noundef @.str, ptr noundef @__func__.H5G__has_stab_test, i32 noundef 296, i64 noundef %79, i64 noundef %80, ptr noundef @.str.3)
  br label %82

82:                                               ; preds = %78
  store i8 1, ptr %7, align 1
  %83 = load i8, ptr %7, align 1
  %84 = trunc i8 %83 to i1
  %85 = zext i1 %84 to i8
  store i8 %85, ptr %7, align 1
  br label %86

86:                                               ; preds = %82
  br label %87

87:                                               ; preds = %86
  store i32 -1, ptr %6, align 4
  br label %109

88:                                               ; No predecessors!
  br label %89

89:                                               ; preds = %88
  br label %90

90:                                               ; preds = %89, %70
  %91 = load i32, ptr %4, align 4
  %92 = icmp sgt i32 %91, 0
  br i1 %92, label %93, label %108

93:                                               ; preds = %90
  br label %94

94:                                               ; preds = %93
  br label %95

95:                                               ; preds = %94
  br label %96

96:                                               ; preds = %95
  %97 = load i64, ptr @H5E_SYM_g, align 8
  %98 = load i64, ptr @H5E_BADVALUE_g, align 8
  %99 = call i32 (ptr, ptr, i32, i64, i64, ptr, ...) @H5E_printf_stack(ptr noundef @.str, ptr noundef @__func__.H5G__has_stab_test, i32 noundef 298, i64 noundef %97, i64 noundef %98, ptr noundef @.str.4)
  br label %100

100:                                              ; preds = %96
  store i8 1, ptr %7, align 1
  %101 = load i8, ptr %7, align 1
  %102 = trunc i8 %101 to i1
  %103 = zext i1 %102 to i8
  store i8 %103, ptr %7, align 1
  br label %104

104:                                              ; preds = %100
  br label %105

105:                                              ; preds = %104
  store i32 -1, ptr %6, align 4
  br label %109

106:                                              ; No predecessors!
  br label %107

107:                                              ; preds = %106
  br label %108

108:                                              ; preds = %107, %90
  br label %109

109:                                              ; preds = %108, %105, %87, %68, %61, %41, %23
  %110 = load i8, ptr %5, align 1
  %111 = trunc i8 %110 to i1
  br i1 %111, label %112, label %128

112:                                              ; preds = %109
  %113 = call i32 @H5CX_pop(i1 noundef zeroext false)
  %114 = icmp slt i32 %113, 0
  br i1 %114, label %115, label %128

115:                                              ; preds = %112
  br label %116

116:                                              ; preds = %115
  br label %117

117:                                              ; preds = %116
  br label %118

118:                                              ; preds = %117
  %119 = load i64, ptr @H5E_SYM_g, align 8
  %120 = load i64, ptr @H5E_CANTRESET_g, align 8
  %121 = call i32 (ptr, ptr, i32, i64, i64, ptr, ...) @H5E_printf_stack(ptr noundef @.str, ptr noundef @__func__.H5G__has_stab_test, i32 noundef 302, i64 noundef %119, i64 noundef %120, ptr noundef @.str.10)
  br label %122

122:                                              ; preds = %118
  store i8 1, ptr %7, align 1
  %123 = load i8, ptr %7, align 1
  %124 = trunc i8 %123 to i1
  %125 = zext i1 %124 to i8
  store i8 %125, ptr %7, align 1
  br label %126

126:                                              ; preds = %122
  store i32 -1, ptr %6, align 4
  br label %127

127:                                              ; preds = %126
  br label %128

128:                                              ; preds = %127, %112, %109
  %129 = load i32, ptr %6, align 4
  ret i32 %129
}