; Function Attrs: nounwind uwtable
define range(i32 -1, 2) i32 @H5G__has_stab_test(i64 noundef %0) local_unnamed_addr #0 {
  %2 = tail call ptr @H5VL_object_verify(i64 noundef %0, i32 noundef 2) #4
  %3 = icmp eq ptr %2, null
  br i1 %3, label %4, label %8

4:                                                ; preds = %1
  %5 = load i64, ptr @H5E_ARGS_g, align 8
  %6 = load i64, ptr @H5E_BADTYPE_g, align 8
  %7 = tail call i32 (ptr, ptr, i32, i64, i64, ptr, ...) @H5E_printf_stack(ptr noundef nonnull @.str, ptr noundef nonnull @__func__.H5G__has_stab_test, i32 noundef 281, i64 noundef %5, i64 noundef %6, ptr noundef nonnull @.str.1) #4
  br label %44

8:                                                ; preds = %1
  %9 = tail call i32 @H5CX_push() #4
  %10 = icmp slt i32 %9, 0
  br i1 %10, label %11, label %15

11:                                               ; preds = %8
  %12 = load i64, ptr @H5E_SYM_g, align 8
  %13 = load i64, ptr @H5E_CANTSET_g, align 8
  %14 = tail call i32 (ptr, ptr, i32, i64, i64, ptr, ...) @H5E_printf_stack(ptr noundef nonnull @.str, ptr noundef nonnull @__func__.H5G__has_stab_test, i32 noundef 285, i64 noundef %12, i64 noundef %13, ptr noundef nonnull @.str.2) #4
  br label %44

15:                                               ; preds = %8
  %16 = getelementptr inbounds i8, ptr %2, i64 8
  %17 = tail call i32 @H5O_msg_exists(ptr noundef nonnull %16, i32 noundef 17) #4
  %18 = icmp slt i32 %17, 0
  br i1 %18, label %19, label %23

19:                                               ; preds = %15
  %20 = load i64, ptr @H5E_SYM_g, align 8
  %21 = load i64, ptr @H5E_CANTINIT_g, align 8
  %22 = tail call i32 (ptr, ptr, i32, i64, i64, ptr, ...) @H5E_printf_stack(ptr noundef nonnull @.str, ptr noundef nonnull @__func__.H5G__has_stab_test, i32 noundef 290, i64 noundef %20, i64 noundef %21, ptr noundef nonnull @.str.3) #4
  br label %37

23:                                               ; preds = %15
  %24 = icmp eq i32 %17, 0
  br i1 %24, label %37, label %25

25:                                               ; preds = %23
  %26 = tail call i32 @H5O_msg_exists(ptr noundef nonnull %16, i32 noundef 6) #4
  %27 = icmp slt i32 %26, 0
  br i1 %27, label %28, label %32

28:                                               ; preds = %25
  %29 = load i64, ptr @H5E_SYM_g, align 8
  %30 = load i64, ptr @H5E_CANTINIT_g, align 8
  %31 = tail call i32 (ptr, ptr, i32, i64, i64, ptr, ...) @H5E_printf_stack(ptr noundef nonnull @.str, ptr noundef nonnull @__func__.H5G__has_stab_test, i32 noundef 296, i64 noundef %29, i64 noundef %30, ptr noundef nonnull @.str.3) #4
  br label %37

32:                                               ; preds = %25
  %.not = icmp eq i32 %26, 0
  br i1 %.not, label %37, label %33

33:                                               ; preds = %32
  %34 = load i64, ptr @H5E_SYM_g, align 8
  %35 = load i64, ptr @H5E_BADVALUE_g, align 8
  %36 = tail call i32 (ptr, ptr, i32, i64, i64, ptr, ...) @H5E_printf_stack(ptr noundef nonnull @.str, ptr noundef nonnull @__func__.H5G__has_stab_test, i32 noundef 298, i64 noundef %34, i64 noundef %35, ptr noundef nonnull @.str.4) #4
  br label %37

37:                                               ; preds = %19, %28, %33, %32, %23
  %.0.ph = phi i32 [ 0, %23 ], [ 1, %32 ], [ -1, %33 ], [ -1, %28 ], [ -1, %19 ]
  %38 = tail call i32 @H5CX_pop(i1 noundef zeroext false) #4
  %39 = icmp slt i32 %38, 0
  br i1 %39, label %40, label %44

40:                                               ; preds = %37
  %41 = load i64, ptr @H5E_SYM_g, align 8
  %42 = load i64, ptr @H5E_CANTRESET_g, align 8
  %43 = tail call i32 (ptr, ptr, i32, i64, i64, ptr, ...) @H5E_printf_stack(ptr noundef nonnull @.str, ptr noundef nonnull @__func__.H5G__has_stab_test, i32 noundef 302, i64 noundef %41, i64 noundef %42, ptr noundef nonnull @.str.10) #4
  br label %44

44:                                               ; preds = %4, %11, %40, %37
  %.1 = phi i32 [ -1, %40 ], [ %.0.ph, %37 ], [ -1, %4 ], [ -1, %11 ]
  ret i32 %.1
}